	.file	"1.cpp"
	.text
	.def	__ZL6printfPKcz;	.scl	3;	.type	32;	.endef
__ZL6printfPKcz:
LFB264:
	.cfi_startproc
	pushl	%ebp
	.cfi_def_cfa_offset 8
	.cfi_offset 5, -8
	movl	%esp, %ebp
	.cfi_def_cfa_register 5
	pushl	%ebx
	subl	$36, %esp
	.cfi_offset 3, -12
	leal	12(%ebp), %eax
	movl	%eax, -12(%ebp)
	movl	-12(%ebp), %eax
	movl	%eax, 4(%esp)
	movl	8(%ebp), %eax
	movl	%eax, (%esp)
	call	___mingw_vprintf
	movl	%eax, %ebx
	movl	%ebx, %eax
	addl	$36, %esp
	popl	%ebx
	.cfi_restore 3
	popl	%ebp
	.cfi_restore 5
	.cfi_def_cfa 4, 4
	ret
	.cfi_endproc
LFE264:
.lcomm __ZStL8__ioinit,1,1
	.def	___main;	.scl	2;	.type	32;	.endef
	.section .rdata,"dr"
LC0:
	.ascii "x:%d y:%d \12\0"
LC1:
	.ascii "a:%c b:%c \12\0"
	.text
	.globl	_main
	.def	_main;	.scl	2;	.type	32;	.endef
_main:
LFB1023:
	.cfi_startproc
	.cfi_personality 0,___gxx_personality_v0
	.cfi_lsda 0,LLSDA1023
	pushl	%ebp
	.cfi_def_cfa_offset 8
	.cfi_offset 5, -8
	movl	%esp, %ebp
	.cfi_def_cfa_register 5
	andl	$-16, %esp
	subl	$32, %esp
	call	___main
	movl	$10, 28(%esp)
	movl	$20, 24(%esp)
	leal	24(%esp), %eax
	movl	%eax, 4(%esp)
	leal	28(%esp), %eax
	movl	%eax, (%esp)
LEHB0:
	call	__Z6myswapIiEvRT_S1_  //63 ===>135лл
LEHE0:
	movl	24(%esp), %edx
	movl	28(%esp), %eax
	movl	%edx, 8(%esp)
	movl	%eax, 4(%esp)
	movl	$LC0, (%esp)
	call	__ZL6printfPKcz
	movb	$97, 23(%esp)
	movb	$98, 22(%esp)
	leal	22(%esp), %eax
	movl	%eax, 4(%esp)
	leal	23(%esp), %eax
	movl	%eax, (%esp)
LEHB1:
	call	__Z6myswapIcEvRT_S1_  //78====>172лл
LEHE1:
	movzbl	22(%esp), %eax
	movsbl	%al, %edx
	movzbl	23(%esp), %eax
	movsbl	%al, %eax
	movl	%edx, 8(%esp)
	movl	%eax, 4(%esp)
	movl	$LC1, (%esp)
	call	__ZL6printfPKcz
	movl	$0, %eax
	jmp	L9
L7:
	movl	%eax, (%esp)
LEHB2:
	call	__Unwind_Resume
L8:
	movl	%eax, (%esp)
	call	__Unwind_Resume
LEHE2:
L9:
	leave
	.cfi_restore 5
	.cfi_def_cfa 4, 4
	ret
	.cfi_endproc
LFE1023:
	.def	___gxx_personality_v0;	.scl	2;	.type	32;	.endef
	.section	.gcc_except_table,"w"
LLSDA1023:
	.byte	0xff
	.byte	0xff
	.byte	0x1
	.uleb128 LLSDACSE1023-LLSDACSB1023
LLSDACSB1023:
	.uleb128 LEHB0-LFB1023
	.uleb128 LEHE0-LEHB0
	.uleb128 L7-LFB1023
	.uleb128 0
	.uleb128 LEHB1-LFB1023
	.uleb128 LEHE1-LEHB1
	.uleb128 L8-LFB1023
	.uleb128 0
	.uleb128 LEHB2-LFB1023
	.uleb128 LEHE2-LEHB2
	.uleb128 0
	.uleb128 0
LLSDACSE1023:
	.text
	.section .rdata,"dr"
	.align 4
LC2:
	.ascii "hello ....\316\322\312\307\304\243\260\345\272\257\312\375 \273\266\323\255 calll \316\322\0"
	.section	.text$_Z6myswapIiEvRT_S1_,"x"
	.linkonce discard
	.globl	__Z6myswapIiEvRT_S1_
	.def	__Z6myswapIiEvRT_S1_;	.scl	2;	.type	32;	.endef
__Z6myswapIiEvRT_S1_:  //
LFB1024:
	.cfi_startproc
	pushl	%ebp
	.cfi_def_cfa_offset 8
	.cfi_offset 5, -8
	movl	%esp, %ebp
	.cfi_def_cfa_register 5
	subl	$40, %esp
	movl	$0, -12(%ebp)
	movl	8(%ebp), %eax
	movl	(%eax), %eax
	movl	%eax, -12(%ebp)
	movl	12(%ebp), %eax
	movl	(%eax), %edx
	movl	8(%ebp), %eax
	movl	%edx, (%eax)
	movl	12(%ebp), %eax
	movl	-12(%ebp), %edx
	movl	%edx, (%eax)
	movl	$LC2, 4(%esp)
	movl	$__ZSt4cout, (%esp)
	call	__ZStlsISt11char_traitsIcEERSt13basic_ostreamIcT_ES5_PKc
	movl	$__ZSt4endlIcSt11char_traitsIcEERSt13basic_ostreamIT_T0_ES6_, (%esp)
	movl	%eax, %ecx
	call	__ZNSolsEPFRSoS_E
	subl	$4, %esp
	leave
	.cfi_restore 5
	.cfi_def_cfa 4, 4
	ret
	.cfi_endproc
LFE1024:
	.section	.text$_Z6myswapIcEvRT_S1_,"x"
	.linkonce discard
	.globl	__Z6myswapIcEvRT_S1_
	.def	__Z6myswapIcEvRT_S1_;	.scl	2;	.type	32;	.endef
__Z6myswapIcEvRT_S1_:  //
LFB1025:
	.cfi_startproc
	pushl	%ebp
	.cfi_def_cfa_offset 8
	.cfi_offset 5, -8
	movl	%esp, %ebp
	.cfi_def_cfa_register 5
	subl	$40, %esp
	movb	$0, -9(%ebp)
	movl	8(%ebp), %eax
	movzbl	(%eax), %eax
	movb	%al, -9(%ebp)
	movl	12(%ebp), %eax
	movzbl	(%eax), %edx
	movl	8(%ebp), %eax
	movb	%dl, (%eax)
	movl	12(%ebp), %eax
	movzbl	-9(%ebp), %edx
	movb	%dl, (%eax)
	movl	$LC2, 4(%esp)
	movl	$__ZSt4cout, (%esp)
	call	__ZStlsISt11char_traitsIcEERSt13basic_ostreamIcT_ES5_PKc
	movl	$__ZSt4endlIcSt11char_traitsIcEERSt13basic_ostreamIT_T0_ES6_, (%esp)
	movl	%eax, %ecx
	call	__ZNSolsEPFRSoS_E
	subl	$4, %esp
	leave
	.cfi_restore 5
	.cfi_def_cfa 4, 4
	ret
	.cfi_endproc
LFE1025:
	.text
	.def	___tcf_0;	.scl	3;	.type	32;	.endef
___tcf_0:
LFB1035:
	.cfi_startproc
	pushl	%ebp
	.cfi_def_cfa_offset 8
	.cfi_offset 5, -8
	movl	%esp, %ebp
	.cfi_def_cfa_register 5
	subl	$8, %esp
	movl	$__ZStL8__ioinit, %ecx
	call	__ZNSt8ios_base4InitD1Ev
	leave
	.cfi_restore 5
	.cfi_def_cfa 4, 4
	ret
	.cfi_endproc
LFE1035:
	.def	__Z41__static_initialization_and_destruction_0ii;	.scl	3;	.type	32;	.endef
__Z41__static_initialization_and_destruction_0ii:
LFB1034:
	.cfi_startproc
	pushl	%ebp
	.cfi_def_cfa_offset 8
	.cfi_offset 5, -8
	movl	%esp, %ebp
	.cfi_def_cfa_register 5
	subl	$24, %esp
	cmpl	$1, 8(%ebp)
	jne	L13
	cmpl	$65535, 12(%ebp)
	jne	L13
	movl	$__ZStL8__ioinit, %ecx
	call	__ZNSt8ios_base4InitC1Ev
	movl	$___tcf_0, (%esp)
	call	_atexit
L13:
	leave
	.cfi_restore 5
	.cfi_def_cfa 4, 4
	ret
	.cfi_endproc
LFE1034:
	.def	__GLOBAL__sub_I_main;	.scl	3;	.type	32;	.endef
__GLOBAL__sub_I_main:
LFB1036:
	.cfi_startproc
	pushl	%ebp
	.cfi_def_cfa_offset 8
	.cfi_offset 5, -8
	movl	%esp, %ebp
	.cfi_def_cfa_register 5
	subl	$24, %esp
	movl	$65535, 4(%esp)
	movl	$1, (%esp)
	call	__Z41__static_initialization_and_destruction_0ii
	leave
	.cfi_restore 5
	.cfi_def_cfa 4, 4
	ret
	.cfi_endproc
LFE1036:
	.section	.ctors,"w"
	.align 4
	.long	__GLOBAL__sub_I_main
	.ident	"GCC: (rev2, Built by MinGW-builds project) 4.8.0"
	.def	___mingw_vprintf;	.scl	2;	.type	32;	.endef
	.def	__Unwind_Resume;	.scl	2;	.type	32;	.endef
	.def	__ZStlsISt11char_traitsIcEERSt13basic_ostreamIcT_ES5_PKc;	.scl	2;	.type	32;	.endef
	.def	__ZSt4endlIcSt11char_traitsIcEERSt13basic_ostreamIT_T0_ES6_;	.scl	2;	.type	32;	.endef
	.def	__ZNSolsEPFRSoS_E;	.scl	2;	.type	32;	.endef
	.def	__ZNSt8ios_base4InitD1Ev;	.scl	2;	.type	32;	.endef
	.def	__ZNSt8ios_base4InitC1Ev;	.scl	2;	.type	32;	.endef
	.def	_atexit;	.scl	2;	.type	32;	.endef
